target datalayout = "e-m:e-p270:32:32-p271:32:32-p272:64:64-i64:64-i128:128-f80:128-n8:16:32:64-S128"
target triple = "x86_64-unknown-linux-gnu"

%class.anon.372 = type { ptr }

; Function Attrs: mustprogress nounwind uwtable
define internal void @_ZZN9grpc_core12_GLOBAL__N_122ConnectedChannelStream15StreamDestroyedEvENKUlvE_clEv(ptr noundef nonnull align 8 dereferenceable(8) %this) #4 align 2 {
entry:
  %this.addr = alloca ptr, align 8
  store ptr %this, ptr %this.addr, align 8
  %this1 = load ptr, ptr %this.addr, align 8
  %0 = getelementptr inbounds %class.anon.372, ptr %this1, i32 0, i32 0
  %1 = load ptr, ptr %0, align 8
  %vtable = load ptr, ptr %1, align 8
  %vfn = getelementptr inbounds ptr, ptr %vtable, i64 1
  %2 = load ptr, ptr %vfn, align 8
  call void %2(ptr noundef nonnull align 8 dereferenceable(132) %1) #3
  ret void
}

; Function Attrs: mustprogress uwtable
define internal void @_ZSt13__invoke_implIvRZN9grpc_core12_GLOBAL__N_122ConnectedChannelStream15StreamDestroyedEvEUlvE_JEET_St14__invoke_otherOT0_DpOT1_(ptr noundef nonnull align 8 dereferenceable(8) %__f) #5 {
entry:
  %__f.addr = alloca ptr, align 8
  store ptr %__f, ptr %__f.addr, align 8
  %0 = load ptr, ptr %__f.addr, align 8
  call void @_ZZN9grpc_core12_GLOBAL__N_122ConnectedChannelStream15StreamDestroyedEvENKUlvE_clEv(ptr noundef nonnull align 8 dereferenceable(8) %0)
  ret void
}

; Function Attrs: mustprogress uwtable
define internal void @_ZSt8__invokeIRZN9grpc_core12_GLOBAL__N_122ConnectedChannelStream15StreamDestroyedEvEUlvE_JEENSt15__invoke_resultIT_JDpT0_EE4typeEOS6_DpOS7_(ptr noundef nonnull align 8 dereferenceable(8) %__fn) #5 {
entry:
  %__fn.addr = alloca ptr, align 8
  store ptr %__fn, ptr %__fn.addr, align 8
  %0 = load ptr, ptr %__fn.addr, align 8
  call void @_ZSt13__invoke_implIvRZN9grpc_core12_GLOBAL__N_122ConnectedChannelStream15StreamDestroyedEvEUlvE_JEET_St14__invoke_otherOT0_DpOT1_(ptr noundef nonnull align 8 dereferenceable(8) %0)
  ret void
}

; Function Attrs: mustprogress uwtable
define internal void @_ZSt6invokeIRZN9grpc_core12_GLOBAL__N_122ConnectedChannelStream15StreamDestroyedEvEUlvE_JEENSt13invoke_resultIT_JDpT0_EE4typeEOS6_DpOS7_(ptr noundef nonnull align 8 dereferenceable(8) %__fn) #5 {
entry:
  %__fn.addr = alloca ptr, align 8
  store ptr %__fn, ptr %__fn.addr, align 8
  %0 = load ptr, ptr %__fn.addr, align 8
  call void @_ZSt8__invokeIRZN9grpc_core12_GLOBAL__N_122ConnectedChannelStream15StreamDestroyedEvEUlvE_JEENSt15__invoke_resultIT_JDpT0_EE4typeEOS6_DpOS7_(ptr noundef nonnull align 8 dereferenceable(8) %0)
  ret void
}

; Function Attrs: mustprogress nounwind uwtable
define internal noundef ptr @_ZSt7launderIZN9grpc_core12_GLOBAL__N_122ConnectedChannelStream15StreamDestroyedEvEUlvE_EPT_S5_(ptr noundef %__p) #4 {
entry:
  %__p.addr = alloca ptr, align 8
  store ptr %__p, ptr %__p.addr, align 8
  %0 = load ptr, ptr %__p.addr, align 8
  ret ptr %0
}

; Function Attrs: mustprogress uwtable
define internal void @_ZN4absl12lts_2023080222internal_any_invocable7InvokeRIvRZN9grpc_core12_GLOBAL__N_122ConnectedChannelStream15StreamDestroyedEvEUlvE_JEvEEvOT0_DpOT1_(ptr noundef nonnull align 8 dereferenceable(8) %f) #5 {
entry:
  %f.addr = alloca ptr, align 8
  store ptr %f, ptr %f.addr, align 8
  %0 = load ptr, ptr %f.addr, align 8
  call void @_ZSt6invokeIRZN9grpc_core12_GLOBAL__N_122ConnectedChannelStream15StreamDestroyedEvEUlvE_JEENSt13invoke_resultIT_JDpT0_EE4typeEOS6_DpOS7_(ptr noundef nonnull align 8 dereferenceable(8) %0)
  ret void
}

; Function Attrs: mustprogress nounwind uwtable
define internal noundef nonnull align 8 dereferenceable(8) ptr @_ZN4absl12lts_2023080222internal_any_invocable20ObjectInLocalStorageIZN9grpc_core12_GLOBAL__N_122ConnectedChannelStream15StreamDestroyedEvEUlvE_EERT_PNS1_15TypeErasedStateE(ptr noundef %state) #4 {
entry:
  %state.addr = alloca ptr, align 8
  store ptr %state, ptr %state.addr, align 8
  %0 = load ptr, ptr %state.addr, align 8
  %call = call noundef ptr @_ZSt7launderIZN9grpc_core12_GLOBAL__N_122ConnectedChannelStream15StreamDestroyedEvEUlvE_EPT_S5_(ptr noundef %0) #3
  ret ptr %call
}

; Function Attrs: mustprogress uwtable
define internal void @_ZN4absl12lts_2023080222internal_any_invocable12LocalInvokerILb0EvRZN9grpc_core12_GLOBAL__N_122ConnectedChannelStream15StreamDestroyedEvEUlvE_JEEET0_PNS1_15TypeErasedStateEDpNS1_18ForwardedParameterIT2_E4typeE(ptr noundef %state) #5 {
entry:
  %state.addr = alloca ptr, align 8
  %f = alloca ptr, align 8
  store ptr %state, ptr %state.addr, align 8
  %0 = load ptr, ptr %state.addr, align 8
  %call = call noundef nonnull align 8 dereferenceable(8) ptr @_ZN4absl12lts_2023080222internal_any_invocable20ObjectInLocalStorageIZN9grpc_core12_GLOBAL__N_122ConnectedChannelStream15StreamDestroyedEvEUlvE_EERT_PNS1_15TypeErasedStateE(ptr noundef %0)
  store ptr %call, ptr %f, align 8
  %1 = load ptr, ptr %f, align 8
  call void @_ZN4absl12lts_2023080222internal_any_invocable7InvokeRIvRZN9grpc_core12_GLOBAL__N_122ConnectedChannelStream15StreamDestroyedEvEUlvE_JEvEEvOT0_DpOT1_(ptr noundef nonnull align 8 dereferenceable(8) %1)
  ret void
}