; Function Attrs: mustprogress uwtable
define internal void @_ZN4absl12lts_2023080222internal_any_invocable12LocalInvokerILb0EvRZN9grpc_core12_GLOBAL__N_122ConnectedChannelStream15StreamDestroyedEvEUlvE_JEEET0_PNS1_15TypeErasedStateEDpNS1_18ForwardedParameterIT2_E4typeE(ptr nocapture noundef readonly %state) #3 {
entry:
  %call.val = load ptr, ptr %state, align 8
  %vtable.i.i.i.i.i = load ptr, ptr %call.val, align 8
  %vfn.i.i.i.i.i = getelementptr inbounds i8, ptr %vtable.i.i.i.i.i, i64 8
  %0 = load ptr, ptr %vfn.i.i.i.i.i, align 8
  tail call void %0(ptr noundef nonnull align 8 dereferenceable(132) %call.val) #23
  ret void
}